target datalayout = "e-m:e-p270:32:32-p271:32:32-p272:64:64-i64:64-i128:128-f80:128-n8:16:32:64-S128"
target triple = "x86_64-unknown-linux-gnu"

%struct.DBusDisplay = type { %struct.Object, i32, i8, ptr, ptr, %struct.DisplayGLCtx, ptr, ptr, ptr, ptr, ptr, %struct.QemuClipboardPeer, ptr, ptr, [3 x %struct.DBusClipboardRequest], %struct.Notifier }
%struct.Object = type { ptr, ptr, ptr, i32, ptr }
%struct.DisplayGLCtx = type { ptr }
%struct.QemuClipboardPeer = type { ptr, %struct.Notifier, ptr }
%struct.DBusClipboardRequest = type { ptr, i32, i32 }
%struct.Notifier = type { ptr, %struct.anon.0 }
%struct.anon.0 = type { ptr, ptr }

@.str.4 = private unnamed_addr constant [13 x i8] c"dbus-display\00", align 1
@.str.9 = private unnamed_addr constant [18 x i8] c"../qemu/ui/dbus.h\00", align 1
@__func__.DBUS_DISPLAY = private unnamed_addr constant [13 x i8] c"DBUS_DISPLAY\00", align 1

; Function Attrs: nounwind sspstrong uwtable
define internal ptr @DBUS_DISPLAY(ptr noundef %obj) #0 {
entry:
  %obj.addr = alloca ptr, align 8
  store ptr %obj, ptr %obj.addr, align 8
  %0 = load ptr, ptr %obj.addr, align 8
  %call = call ptr @object_dynamic_cast_assert(ptr noundef %0, ptr noundef @.str.4, ptr noundef @.str.9, i32 noundef 72, ptr noundef @__func__.DBUS_DISPLAY)
  ret ptr %call
}

; Function Attrs: nounwind sspstrong uwtable
define internal void @set_dbus_addr(ptr noundef %o, ptr noundef %str, ptr noundef %errp) #0 {
entry:
  %o.addr = alloca ptr, align 8
  %str.addr = alloca ptr, align 8
  %errp.addr = alloca ptr, align 8
  %dd = alloca ptr, align 8
  store ptr %o, ptr %o.addr, align 8
  store ptr %str, ptr %str.addr, align 8
  store ptr %errp, ptr %errp.addr, align 8
  %0 = load ptr, ptr %o.addr, align 8
  %call = call ptr @DBUS_DISPLAY(ptr noundef %0)
  store ptr %call, ptr %dd, align 8
  %1 = load ptr, ptr %dd, align 8
  %dbus_addr = getelementptr inbounds %struct.DBusDisplay, ptr %1, i32 0, i32 3
  %2 = load ptr, ptr %dbus_addr, align 8
  call void @g_free(ptr noundef %2)
  %3 = load ptr, ptr %str.addr, align 8
  %call1 = call noalias ptr @g_strdup(ptr noundef %3)
  %4 = load ptr, ptr %dd, align 8
  %dbus_addr2 = getelementptr inbounds %struct.DBusDisplay, ptr %4, i32 0, i32 3
  store ptr %call1, ptr %dbus_addr2, align 8
  ret void
}