; Function Attrs: nounwind sspstrong uwtable
define internal void @set_dbus_addr(ptr noundef %o, ptr noundef %str, ptr readnone captures(none) %errp) #0 {
entry:
  %call.i = tail call ptr @object_dynamic_cast_assert(ptr noundef %o, ptr noundef nonnull @.str.4, ptr noundef nonnull @.str.9, i32 noundef 72, ptr noundef nonnull @__func__.DBUS_DISPLAY) #5
  %dbus_addr = getelementptr inbounds nuw i8, ptr %call.i, i64 48
  %0 = load ptr, ptr %dbus_addr, align 8
  tail call void @g_free(ptr noundef %0) #5
  %call1 = tail call noalias ptr @g_strdup(ptr noundef %str) #5
  store ptr %call1, ptr %dbus_addr, align 8
  ret void
}